; ModuleID = 'bench/openssl/original/evp_pkey_ctx_new_from_name.ll'
source_filename = "bench/openssl/original/evp_pkey_ctx_new_from_name.ll"
target datalayout = "e-m:e-p270:32:32-p271:32:32-p272:64:64-i64:64-i128:128-f80:128-n8:16:32:64-S128"
target triple = "x86_64-pc-linux-gnu"

@.str = private unnamed_addr constant [18 x i8] c"NO_SUCH_ALGORITHM\00", align 1

; Function Attrs: nounwind uwtable
define dso_local noundef i32 @main(i32 noundef %0, ptr noundef readnone captures(none) %1) local_unnamed_addr #0 {
  %3 = tail call ptr @EVP_PKEY_CTX_new_from_name(ptr noundef null, ptr noundef nonnull @.str, ptr noundef null) #2
  tail call void @EVP_PKEY_CTX_free(ptr noundef %3) #2
  ret i32 0
}

declare ptr @EVP_PKEY_CTX_new_from_name(ptr noundef, ptr noundef, ptr noundef) local_unnamed_addr #1

declare void @EVP_PKEY_CTX_free(ptr noundef) local_unnamed_addr #1


!llvm.module.flags = !{!0, !1, !2, !3}

!0 = !{i32 1, !"wchar_size", i32 4}
!1 = !{i32 8, !"PIC Level", i32 2}
!2 = !{i32 7, !"PIE Level", i32 2}
!3 = !{i32 7, !"uwtable", i32 2}
